; Function Attrs: nounwind uwtable
define i32 @Acb_FindArgMaxUnderMask2(ptr noundef readonly captures(none) %0, ptr noundef readonly captures(none) %1, ptr noundef readnone captures(none) %2, i32 noundef %3) local_unnamed_addr #0 {
  %5 = getelementptr i8, ptr %0, i64 4
  %.val48 = load i32, ptr %5, align 4
  %6 = sdiv i32 %.val48, 256
  %7 = add i32 %3, -1
  %or.cond.i.i = icmp ult i32 %7, 15
  %spec.store.select.i.i = select i1 %or.cond.i.i, i32 16, i32 %3
  %.not.i.i = icmp eq i32 %spec.store.select.i.i, 0
  br i1 %.not.i.i, label %Vec_IntStart.exit, label %Vec_IntAlloc.exit.i

Vec_IntAlloc.exit.i:                              ; preds = %4
  %8 = sext i32 %spec.store.select.i.i to i64
  %9 = shl nsw i64 %8, 2
  %10 = tail call noalias ptr @malloc(i64 noundef %9) #29
  %.not.i = icmp eq ptr %10, null
  br i1 %.not.i, label %Vec_IntStart.exit, label %11

11:                                               ; preds = %Vec_IntAlloc.exit.i
  %12 = sext i32 %3 to i64
  %13 = shl nsw i64 %12, 2
  tail call void @llvm.memset.p0.i64(ptr nonnull align 4 %10, i8 0, i64 %13, i1 false)
  br label %Vec_IntStart.exit

Vec_IntStart.exit:                                ; preds = %4, %Vec_IntAlloc.exit.i, %11
  %14 = phi ptr [ null, %Vec_IntAlloc.exit.i ], [ %10, %11 ], [ null, %4 ]
  %15 = icmp sgt i32 %.val48, 255
  br i1 %15, label %.lr.ph53, label %._crit_edge60

.lr.ph53:                                         ; preds = %Vec_IntStart.exit
  %16 = icmp sgt i32 %3, 0
  br i1 %16, label %.lr.ph.us.preheader, label %._crit_edge60

.lr.ph.us.preheader:                              ; preds = %.lr.ph53
  %17 = getelementptr i8, ptr %0, i64 8
  %wide.trip.count70 = zext nneg i32 %6 to i64
  %.val47.us = load ptr, ptr %17, align 8
  %wide.trip.count = zext nneg i32 %3 to i64
  br label %.lr.ph.us

.lr.ph.us:                                        ; preds = %.lr.ph.us.preheader, %._crit_edge.us
  %indvars.iv67 = phi i64 [ 0, %.lr.ph.us.preheader ], [ %indvars.iv.next68, %._crit_edge.us ]
  %.idx = shl nsw i64 %indvars.iv67, 11
  %18 = getelementptr inbounds nuw i8, ptr %.val47.us, i64 %.idx
  br label %19

19:                                               ; preds = %.lr.ph.us, %31
  %indvars.iv = phi i64 [ 0, %.lr.ph.us ], [ %indvars.iv.next, %31 ]
  %20 = lshr i64 %indvars.iv, 6
  %21 = and i64 %20, 67108863
  %22 = getelementptr inbounds nuw i64, ptr %18, i64 %21
  %23 = load i64, ptr %22, align 8
  %24 = and i64 %indvars.iv, 63
  %25 = shl nuw i64 1, %24
  %26 = and i64 %23, %25
  %.not44.us = icmp eq i64 %26, 0
  br i1 %.not44.us, label %31, label %27

27:                                               ; preds = %19
  %28 = getelementptr inbounds nuw i32, ptr %14, i64 %indvars.iv
  %29 = load i32, ptr %28, align 4
  %30 = add nsw i32 %29, 1
  store i32 %30, ptr %28, align 4
  br label %31

31:                                               ; preds = %27, %19
  %indvars.iv.next = add nuw nsw i64 %indvars.iv, 1
  %exitcond.not = icmp eq i64 %indvars.iv.next, %wide.trip.count
  br i1 %exitcond.not, label %._crit_edge.us, label %19, !llvm.loop !96

._crit_edge.us:                                   ; preds = %31
  %indvars.iv.next68 = add nuw nsw i64 %indvars.iv67, 1
  %exitcond71.not = icmp eq i64 %indvars.iv.next68, %wide.trip.count70
  br i1 %exitcond71.not, label %.lr.ph59, label %.lr.ph.us, !llvm.loop !97

.lr.ph59:                                         ; preds = %._crit_edge.us
  %32 = getelementptr i8, ptr %0, i64 8
  %.val46 = load ptr, ptr %32, align 8
  %wide.trip.count81 = zext nneg i32 %6 to i64
  %wide.trip.count76 = zext nneg i32 %3 to i64
  br label %.lr.ph.us62

.lr.ph.us62:                                      ; preds = %.lr.ph59, %._crit_edge.us63
  %indvars.iv78 = phi i64 [ 0, %.lr.ph59 ], [ %indvars.iv.next79, %._crit_edge.us63 ]
  %.03657.us = phi i32 [ -1, %.lr.ph59 ], [ %spec.select45.us, %._crit_edge.us63 ]
  %.03856.us = phi i32 [ -1, %.lr.ph59 ], [ %spec.select.us, %._crit_edge.us63 ]
  %.idx84 = shl nsw i64 %indvars.iv78, 11
  %33 = getelementptr inbounds nuw i8, ptr %.val46, i64 %.idx84
  br label %34

34:                                               ; preds = %.lr.ph.us62, %51
  %indvars.iv73 = phi i64 [ 0, %.lr.ph.us62 ], [ %indvars.iv.next74, %51 ]
  %.04054.us = phi i32 [ 0, %.lr.ph.us62 ], [ %.141.us, %51 ]
  %35 = lshr i64 %indvars.iv73, 6
  %36 = and i64 %35, 67108863
  %37 = getelementptr inbounds nuw i64, ptr %33, i64 %36
  %38 = load i64, ptr %37, align 8
  %39 = and i64 %indvars.iv73, 63
  %40 = shl nuw i64 1, %39
  %41 = and i64 %38, %40
  %.not.us = icmp eq i64 %41, 0
  br i1 %.not.us, label %51, label %42

42:                                               ; preds = %34
  %43 = getelementptr inbounds nuw i64, ptr %1, i64 %36
  %44 = load i64, ptr %43, align 8
  %45 = and i64 %44, %40
  %.not43.us = icmp eq i64 %45, 0
  br i1 %.not43.us, label %51, label %46

46:                                               ; preds = %42
  %47 = getelementptr inbounds nuw i32, ptr %14, i64 %indvars.iv73
  %48 = load i32, ptr %47, align 4
  %49 = sdiv i32 1000000, %48
  %50 = add nsw i32 %49, %.04054.us
  br label %51

51:                                               ; preds = %46, %42, %34
  %.141.us = phi i32 [ %50, %46 ], [ %.04054.us, %42 ], [ %.04054.us, %34 ]
  %indvars.iv.next74 = add nuw nsw i64 %indvars.iv73, 1
  %exitcond77.not = icmp eq i64 %indvars.iv.next74, %wide.trip.count76
  br i1 %exitcond77.not, label %._crit_edge.us63, label %34, !llvm.loop !98

._crit_edge.us63:                                 ; preds = %51
  %52 = icmp slt i32 %.03856.us, %.141.us
  %spec.select.us = tail call i32 @llvm.smax.i32(i32 %.03856.us, i32 %.141.us)
  %53 = trunc nuw nsw i64 %indvars.iv78 to i32
  %spec.select45.us = select i1 %52, i32 %53, i32 %.03657.us
  %indvars.iv.next79 = add nuw nsw i64 %indvars.iv78, 1
  %exitcond82.not = icmp eq i64 %indvars.iv.next79, %wide.trip.count81
  br i1 %exitcond82.not, label %._crit_edge60, label %.lr.ph.us62, !llvm.loop !99

._crit_edge60:                                    ; preds = %._crit_edge.us63, %.lr.ph53, %Vec_IntStart.exit
  %.036.lcssa = phi i32 [ -1, %Vec_IntStart.exit ], [ 0, %.lr.ph53 ], [ %spec.select45.us, %._crit_edge.us63 ]
  %.not.i50 = icmp eq ptr %14, null
  br i1 %.not.i50, label %Vec_IntFree.exit, label %54

54:                                               ; preds = %._crit_edge60
  tail call void @free(ptr noundef nonnull %14) #31
  br label %Vec_IntFree.exit

Vec_IntFree.exit:                                 ; preds = %._crit_edge60, %54
  ret i32 %.036.lcssa
}